; Function Attrs: mustprogress uwtable
define noundef zeroext i1 @_ZN18OpenImageIO_v2_6_010decode_xmpEPKcRNS_9ImageSpecE(ptr noundef %xml, ptr noundef nonnull align 8 dereferenceable(160) %spec) local_unnamed_addr #5 personality ptr @__gxx_personality_v0 {
entry:
  %agg.tmp = alloca %"class.OpenImageIO_v2_6_0::basic_string_view", align 8
  store ptr %xml, ptr %agg.tmp, align 8
  %tobool.not.i = icmp eq ptr %xml, null
  br i1 %tobool.not.i, label %_ZN18OpenImageIO_v2_6_017basic_string_viewIcSt11char_traitsIcEEC2EPKc.exit, label %cond.true.i

cond.true.i:                                      ; preds = %entry
  %call.i.i.i = tail call noundef i64 @strlen(ptr noundef nonnull dereferenceable(1) %xml) #23
  br label %_ZN18OpenImageIO_v2_6_017basic_string_viewIcSt11char_traitsIcEEC2EPKc.exit

_ZN18OpenImageIO_v2_6_017basic_string_viewIcSt11char_traitsIcEEC2EPKc.exit: ; preds = %entry, %cond.true.i
  %cond.i = phi i64 [ %call.i.i.i, %cond.true.i ], [ 0, %entry ]
  %m_len.i = getelementptr inbounds i8, ptr %agg.tmp, i64 8
  store i64 %cond.i, ptr %m_len.i, align 8
  %call = call noundef zeroext i1 @_ZN18OpenImageIO_v2_6_010decode_xmpENS_17basic_string_viewIcSt11char_traitsIcEEERNS_9ImageSpecE(ptr noundef nonnull %agg.tmp, ptr noundef nonnull align 8 dereferenceable(160) %spec)
  ret i1 true
}